target datalayout = "e-m:e-p270:32:32-p271:32:32-p272:64:64-i64:64-i128:128-f80:128-n8:16:32:64-S128"
target triple = "x86_64-pc-linux-gnu"

%struct.lua_State = type { %struct.GCRef, i8, i8, i8, i8, %struct.MRef, %struct.GCRef, ptr, ptr, %struct.MRef, %struct.MRef, %struct.GCRef, %struct.GCRef, ptr, i32 }
%struct.MRef = type { i64 }
%struct.GCRef = type { i64 }
%struct.global_State = type { ptr, ptr, %struct.GCState, %struct.GCstr, i8, i8, i8, i8, %struct.StrInternState, i32, %struct.GCRef, %struct.SBuf, %union.TValue, %union.TValue, %struct.Node, %union.TValue, %struct.GCupval, i32, i32, ptr, ptr, ptr, i32, i32, %struct.GCRef, %struct.MRef, %struct.MRef, %struct.PRNGState, [39 x %struct.GCRef] }
%struct.GCState = type { i64, i64, i8, i8, i8, i8, i32, %struct.GCRef, %struct.MRef, %struct.GCRef, %struct.GCRef, %struct.GCRef, %struct.GCRef, i64, i64, i32, i32, %struct.MRef }
%struct.GCstr = type { %struct.GCRef, i8, i8, i8, i8, i32, i32, i32 }
%struct.StrInternState = type { ptr, i32, i32, i32, i8, i8, i8, i8, i64 }
%struct.SBuf = type { ptr, ptr, ptr, %struct.MRef }
%struct.Node = type { %union.TValue, %union.TValue, %struct.MRef }
%union.TValue = type { i64 }
%struct.GCupval = type { %struct.GCRef, i8, i8, i8, i8, %union.anon, %struct.MRef, i32 }
%union.anon = type { %struct.anon.1 }
%struct.anon.1 = type { %struct.GCRef, %struct.GCRef }
%struct.PRNGState = type { [4 x i64] }
%struct.GCfuncC = type { %struct.GCRef, i8, i8, i8, i8, %struct.GCRef, %struct.GCRef, %struct.MRef, ptr, [1 x %union.TValue] }

; Function Attrs: nounwind uwtable
define hidden ptr @lj_lib_pushcc(ptr noundef %0, ptr noundef %1, i32 noundef %2, i32 noundef %3) #0 {
  %5 = alloca ptr, align 8
  %6 = alloca ptr, align 8
  %7 = alloca i32, align 4
  %8 = alloca i32, align 4
  %9 = alloca ptr, align 8
  store ptr %0, ptr %5, align 8, !tbaa !4
  store ptr %1, ptr %6, align 8, !tbaa !11
  store i32 %2, ptr %7, align 4, !tbaa !24
  store i32 %3, ptr %8, align 4, !tbaa !24
  call void @llvm.lifetime.start.p0(i64 8, ptr %9) #9
  %10 = load ptr, ptr %5, align 8, !tbaa !4
  %11 = load ptr, ptr %6, align 8, !tbaa !11
  %12 = load i32, ptr %8, align 4, !tbaa !24
  call void @lua_pushcclosure(ptr noundef %10, ptr noundef %11, i32 noundef %12)
  %13 = load ptr, ptr %5, align 8, !tbaa !4
  %14 = getelementptr inbounds nuw %struct.lua_State, ptr %13, i32 0, i32 8
  %15 = load ptr, ptr %14, align 8, !tbaa !28
  %16 = getelementptr inbounds %union.TValue, ptr %15, i64 -1
  %17 = getelementptr inbounds nuw %struct.GCRef, ptr %16, i32 0, i32 0
  %18 = load i64, ptr %17, align 8, !tbaa !23
  %19 = and i64 %18, 140737488355327
  %20 = inttoptr i64 %19 to ptr
  store ptr %20, ptr %9, align 8, !tbaa !21
  %21 = load i32, ptr %7, align 4, !tbaa !24
  %22 = trunc i32 %21 to i8
  %23 = load ptr, ptr %9, align 8, !tbaa !21
  %24 = getelementptr inbounds nuw %struct.GCfuncC, ptr %23, i32 0, i32 3
  store i8 %22, ptr %24, align 2, !tbaa !23
  %25 = load ptr, ptr %5, align 8, !tbaa !4
  %26 = getelementptr inbounds nuw %struct.lua_State, ptr %25, i32 0, i32 5
  %27 = getelementptr inbounds nuw %struct.MRef, ptr %26, i32 0, i32 0
  %28 = load i64, ptr %27, align 8, !tbaa !25
  %29 = inttoptr i64 %28 to ptr
  %30 = getelementptr inbounds nuw %struct.global_State, ptr %29, i32 0, i32 22
  %31 = ptrtoint ptr %30 to i64
  %32 = load ptr, ptr %9, align 8, !tbaa !21
  %33 = getelementptr inbounds nuw %struct.GCfuncC, ptr %32, i32 0, i32 7
  %34 = getelementptr inbounds nuw %struct.MRef, ptr %33, i32 0, i32 0
  store i64 %31, ptr %34, align 8, !tbaa !23
  %35 = load ptr, ptr %9, align 8, !tbaa !21
  call void @llvm.lifetime.end.p0(i64 8, ptr %9) #9
  ret ptr %35
}