; Function Attrs: nounwind uwtable
define hidden ptr @lj_lib_pushcc(ptr noundef %0, ptr noundef %1, i32 noundef %2, i32 noundef %3) local_unnamed_addr #0 {
  tail call void @lua_pushcclosure(ptr noundef %0, ptr noundef %1, i32 noundef %3) #8
  %5 = getelementptr inbounds nuw i8, ptr %0, i64 40
  %6 = load ptr, ptr %5, align 8, !tbaa !16
  %7 = getelementptr inbounds i8, ptr %6, i64 -8
  %8 = load i64, ptr %7, align 8, !tbaa !14
  %9 = and i64 %8, 140737488355327
  %10 = inttoptr i64 %9 to ptr
  %11 = trunc i32 %2 to i8
  %12 = getelementptr inbounds nuw i8, ptr %10, i64 10
  store i8 %11, ptr %12, align 2, !tbaa !14
  %13 = getelementptr inbounds nuw i8, ptr %0, i64 16
  %14 = load i64, ptr %13, align 8, !tbaa !15
  %15 = add nuw i64 %14, 360
  %16 = getelementptr inbounds nuw i8, ptr %10, i64 32
  store i64 %15, ptr %16, align 8, !tbaa !14
  ret ptr %10
}